ccopy_reg
_reconstructor
p0
(csklearn.linear_model.base
LinearRegression
p1
c__builtin__
object
p2
Ntp3
Rp4
(dp5
S'normalize'
p6
I00
sS'n_jobs'
p7
I-1
sS'rank_'
p8
I3
sS'fit_intercept'
p9
I01
sS'_residues'
p10
cnumpy.core.multiarray
_reconstruct
p11
(cnumpy
ndarray
p12
(I0
tp13
S'b'
p14
tp15
Rp16
(I1
(I0
tp17
cnumpy
dtype
p18
(S'f8'
p19
I0
I1
tp20
Rp21
(I3
S'<'
p22
NNNI-1
I-1
I0
tp23
bI00
S''
p24
tp25
bsS'coef_'
p26
g11
(g12
(I0
tp27
g14
tp28
Rp29
(I1
(I4
tp30
g21
I00
S'>\xc4\x8a"\xf3Ap@\x00\x00\x00\x00\x00\x00\x00\x00\xf2\xbeJ\x1d\xa7\xd2\xc6?\xf2\xcc\x90\xdc\xda\x8c\r\xc0'
p31
tp32
bsS'_sklearn_version'
p33
S'0.19.1'
p34
sS'copy_X'
p35
I01
sS'intercept_'
p36
cnumpy.core.multiarray
scalar
p37
(g21
S'\xad\xf0\x08\x00^@z@'
p38
tp39
Rp40
sS'singular_'
p41
g11
(g12
(I0
tp42
g14
tp43
Rp44
(I1
(I4
tp45
g21
I00
S'L`\xc0\x97\xa0\xe6O@\x11\x9c\xc7\xc0\x83NI@\x05\x7f@\x11\xdb0A@\x1c\x9b/\x82f\xfe\xa8<'
p46
tp47
bsb.